; Function Attrs: mustprogress nounwind uwtable
define internal fastcc void @_ZNSt10unique_ptrIN9grpc_core12_GLOBAL__N_112OldPickFirst14SubchannelListENS0_16OrphanableDeleteEED2Ev(ptr noundef nonnull align 8 captures(none) dereferenceable(8) %0) unnamed_addr #19 align 2 personality ptr @__gxx_personality_v0 {
  %2 = load ptr, ptr %0, align 8, !tbaa !172
  %.not = icmp eq ptr %2, null
  br i1 %.not, label %_ZN9grpc_core16OrphanableDeleteclINS_12_GLOBAL__N_112OldPickFirst14SubchannelListEEEvPT_.exit, label %3

3:                                                ; preds = %1
  invoke void @_ZN9grpc_core12_GLOBAL__N_112OldPickFirst14SubchannelList6OrphanEv(ptr noundef nonnull align 8 dereferenceable(152) %2)
          to label %_ZN9grpc_core16OrphanableDeleteclINS_12_GLOBAL__N_112OldPickFirst14SubchannelListEEEvPT_.exit unwind label %4

_ZN9grpc_core16OrphanableDeleteclINS_12_GLOBAL__N_112OldPickFirst14SubchannelListEEEvPT_.exit: ; preds = %3, %1
  store ptr null, ptr %0, align 8, !tbaa !172
  ret void

4:                                                ; preds = %3
  %5 = landingpad { ptr, i32 }
          catch ptr null
  %6 = extractvalue { ptr, i32 } %5, 0
  tail call void @__clang_call_terminate(ptr %6) #40
  unreachable
}